ccopy_reg
_reconstructor
p1
(cnltk.probability
LaplaceProbDist
p2
c__builtin__
object
p3
NtRp4
(dp5
S'_gamma'
p6
F1
sS'_N'
p7
I3740809
sS'_freqdist'
p8
g1
(cnltk.probability
FreqDist
p9
c__builtin__
dict
p10
(dp11
S'gw'
p12
I25
sS'gv'
p13
I4
sS'gu'
p14
I2849
sS'gt'
p15
I715
sS'gs'
p16
I2066
sS'gr'
p17
I7701
sS'gp'
p18
I17
sS'gz'
p19
I4
sS'gy'
p20
I581
sS'gg'
p21
I1149
sS'gf'
p22
I67
sS'ge'
p23
I13834
sS'gd'
p24
I46
sS'gc'
p25
I13
sS'gb'
p26
I39
sS'ga'
p27
I5777
sS'go'
p28
I5718
sS'gn'
p29
I2226
sS'gm'
p30
I262
sS'gl'
p31
I2340
sS'gk'
p32
I7
sS'gj'
p33
I33
sS'gi'
p34
I5512
sS'gh'
p35
I10146
sS'tz'
p36
I155
sS'ty'
p37
I7632
sS'tv'
p38
I70
sS'tw'
p39
I2934
sS'tt'
p40
I7458
sS'tu'
p41
I8585
sS'tr'
p42
I14696
sS'ts'
p43
I12884
sS'tp'
p44
I117
sS'tq'
p45
I1
sS'tn'
p46
I331
sS'to'
p47
I41169
sS'tl'
p48
I4396
sS'tm'
p49
I1150
sS'tj'
p50
I5
sS'tk'
p51
I19
sS'th'
p52
I134673
sS'ti'
p53
I43389
sS'tf'
p54
I351
sS'tg'
p55
I99
sS'td'
p56
I105
sS'te'
p57
I43168
sS'tb'
p58
I151
sS'tc'
p59
I1631
sS'ta'
p60
I19155
sS'zl'
p61
I108
sS'zm'
p62
I3
sS'zo'
p63
I219
sS'zh'
p64
I8
sS'zi'
p65
I494
sS'zk'
p66
I13
sS'ze'
p67
I2022
sS'zf'
p68
I6
sS'zg'
p69
I39
sS'za'
p70
I800
sS'zb'
p71
I11
sS'zy'
p72
I113
sS'zz'
p73
I351
sS'zt'
p74
I3
sS'zu'
p75
I30
sS'zv'
p76
I9
sS'zw'
p77
I5
sS'zq'
p78
I2
sS'zr'
p79
I4
sS'zs'
p80
I7
sS'ix'
p81
I745
sS'iz'
p82
I2357
sS'ip'
p83
I3304
sS'iu'
p84
I418
sS'it'
p85
I41620
sS'iw'
p86
I25
sS'iv'
p87
I9609
sS'me'
p88
I29906
sS'md'
p89
I22
sS'mg'
p90
I38
sS'mf'
p91
I163
sS'ma'
p92
I20856
sS'mc'
p93
I193
sS'mb'
p94
I3501
sS'mm'
p95
I3413
sS'ml'
p96
I190
sS'mo'
p97
I12961
sS'mn'
p98
I370
sS'mi'
p99
I11955
sS'mh'
p100
I20
sS'mk'
p101
I10
sS'mu'
p102
I4723
sS'mt'
p103
I48
sS'mw'
p104
I31
sS'mv'
p105
I8
sS'mp'
p106
I7852
sS'ms'
p107
I3589
sS'mr'
p108
I1423
sS'im'
p109
I12862
sS'my'
p110
I2224
sS'il'
p111
I17403
sS'io'
p112
I25786
sS'ic'
p113
I24167
sS'fp'
p114
I35
sS'fr'
p115
I7943
sS'fs'
p116
I216
sS'ft'
p117
I3180
sS'fu'
p118
I3650
sS'fv'
p119
I2
sS'fw'
p120
I33
sS'fy'
p121
I289
sS'fa'
p122
I6396
sS'fb'
p123
I40
sS'fc'
p124
I68
sS'fd'
p125
I65
sS'fe'
p126
I8643
sS'ff'
p127
I5346
sS'fg'
p128
I13
sS'fh'
p129
I35
sS'fi'
p130
I10467
sS'fj'
p131
I4
sS'fk'
p132
I6
sS'fl'
p133
I2455
sS'fm'
p134
I34
sS'fn'
p135
I16
sS'fo'
p136
I18536
sS'sz'
p137
I22
sS'sy'
p138
I1766
sS'sx'
p139
I3
sS'ss'
p140
I14525
sS'sr'
p141
I166
sS'sq'
p142
I399
sS'sp'
p143
I6916
sS'sw'
p144
I1200
sS'sv'
p145
I42
sS'su'
p146
I10607
sS'st'
p147
I41480
sS'sk'
p148
I1884
sS'sj'
p149
I3
sS'si'
p150
I19873
sS'sh'
p151
I13558
sS'so'
p152
I14461
sS'sn'
p153
I894
sS'sm'
p154
I2605
sS'sl'
p155
I2636
sS'sc'
p156
I5420
sS'sb'
p157
I380
sS'sa'
p158
I8839
sS'sg'
p159
I64
sS'sf'
p160
I557
sS'se'
p161
I32163
sS'sd'
p162
I281
sS'lf'
p163
I2375
sS'lg'
p164
I226
sS'ld'
p165
I11636
sS'le'
p166
I31965
sS'lb'
p167
I302
sS'lc'
p168
I361
sS'la'
p169
I18593
sS'ln'
p170
I214
sS'lo'
p171
I14666
sS'll'
p172
I24030
sS'lm'
p173
I1154
sS'lj'
p174
I1
sS'lk'
p175
I1098
sS'lh'
p176
I93
sS'li'
p177
I23206
sS'lv'
p178
I1146
sS'lw'
p179
I556
sS'lt'
p180
I4025
sS'lu'
p181
I4758
sS'lr'
p182
I471
sS'ls'
p183
I4974
sS'lp'
p184
I850
sS'lq'
p185
I5
sS'lz'
p186
I22
sS'ly'
p187
I17355
sS'yi'
p188
I1289
sS'yh'
p189
I63
sS'yk'
p190
I43
sS'yj'
p191
I6
sS'ym'
p192
I905
sS'yl'
p193
I590
sS'yo'
p194
I6309
sS'yn'
p195
I472
sS'ya'
p196
I711
sS'yc'
p197
I356
sS'yb'
p198
I386
sS'ye'
p199
I4440
sS'yd'
p200
I217
sS'yg'
p201
I93
sS'yf'
p202
I177
sS'yy'
p203
I9
sS'yz'
p204
I57
sS'yq'
p205
I1
sS'yp'
p206
I755
sS'ys'
p207
I4001
sS'yr'
p208
I500
sS'yu'
p209
I62
sS'yt'
p210
I876
sS'yw'
p211
I264
sS'yv'
p212
I24
sS'em'
p213
I13414
sS'el'
p214
I20285
sS'eo'
p215
I2460
sS'en'
p216
I52302
sS'ei'
p217
I6346
sS'eh'
p218
I959
sS'ek'
p219
I952
sS'ej'
p220
I163
sS'ee'
p221
I15744
sS'ed'
p222
I47111
sS'eg'
p223
I4279
sS'ef'
p224
I5618
sS'ea'
p225
I27290
sS'ec'
p226
I15953
sS'eb'
p227
I907
sS'ey'
p228
I6430
sS'ex'
p229
I7007
sS'ez'
p230
I196
sS'eu'
p231
I860
sS'et'
p232
I16241
sS'ew'
p233
I5017
sS'ev'
p234
I9818
sS'eq'
p235
I1665
sS'ep'
p236
I6258
sS'es'
p237
I46554
sS'er'
p238
I76287
sS'rt'
p239
I13028
sS'ru'
p240
I4762
sS'rv'
p241
I2259
sS'rw'
p242
I450
sS'rp'
p243
I1618
sS'rq'
p244
I42
sS'rr'
p245
I4203
sS'rs'
p246
I16346
sS'rx'
p247
I17
sS'ry'
p248
I8719
sS'rz'
p249
I34
sS'rd'
p250
I7170
sS're'
p251
I67405
sS'rf'
p252
I1156
sS'rg'
p253
I3452
sS'ra'
p254
I23557
sS'rb'
p255
I1008
sS'rc'
p256
I3917
sS'rl'
p257
I3764
sS'rm'
p258
I5891
sS'rn'
p259
I6185
sS'ro'
p260
I27197
sS'rh'
p261
I727
sS'ri'
p262
I25151
sS'rj'
p263
I9
sS'rk'
p264
I3564
sS'xj'
p265
I2
sS'xh'
p266
I132
sS'xi'
p267
I1048
sS'xn'
p268
I4
sS'xo'
p269
I130
sS'xl'
p270
I24
sS'xm'
p271
I9
sS'xb'
p272
I3
sS'xc'
p273
I911
sS'xa'
p274
I885
sS'xf'
p275
I37
sS'xg'
p276
I8
sS'xd'
p277
I1
sS'xe'
p278
I653
sS'xx'
p279
I4
sS'xy'
p280
I91
sS'xr'
p281
I34
sS'xs'
p282
I37
sS'xp'
p283
I2436
sS'xq'
p284
I7
sS'xv'
p285
I2
sS'xw'
p286
I15
sS'xt'
p287
I1536
sS'xu'
p288
I129
sS'kc'
p289
I18
sS'kb'
p290
I54
sS'ka'
p291
I773
sS'kg'
p292
I79
sS'kf'
p293
I116
sS'ke'
p294
I10464
sS'kd'
p295
I29
sS'kk'
p296
I45
sS'kj'
p297
I24
sS'ki'
p298
I4103
sS'kh'
p299
I181
sS'ko'
p300
I412
sS'kn'
p301
I2334
sS'km'
p302
I68
sS'kl'
p303
I559
sS'ks'
p304
I1866
sS'kr'
p305
I124
sS'kq'
p306
I1
sS'kp'
p307
I32
sS'kw'
p308
I103
sS'kv'
p309
I2
sS'ku'
p310
I101
sS'kt'
p311
I61
sS'ky'
p312
I400
sS'dn'
p313
I1086
sS'do'
p314
I8020
sS'dl'
p315
I1650
sS'dm'
p316
I638
sS'dj'
p317
I229
sS'dk'
p318
I18
sS'dh'
p319
I181
sS'di'
p320
I16769
sS'df'
p321
I123
sS'dg'
p322
I1151
sS'dd'
p323
I1888
sS'de'
p324
I27650
sS'db'
p325
I152
sS'dc'
p326
I147
sS'da'
p327
I6023
sS'dz'
p328
I4
sS'dy'
p329
I2334
sS'dv'
p330
I618
sS'dw'
p331
I356
sS'dt'
p332
I133
sS'du'
p333
I4596
sS'dr'
p334
I3790
sS'ds'
p335
I4915
sS'dp'
p336
I41
sS'dq'
p337
I68
sS'qu'
p338
I5008
sS'qw'
p339
I2
sS'qv'
p340
I1
sS'qe'
p341
I1
sS'qi'
p342
I1
sS'ql'
p343
I13
sS'qn'
p344
I4
sS'wb'
p345
I81
sS'wn'
p346
I3562
sS'wg'
p347
I11
sS'wf'
p348
I57
sS'we'
p349
I14237
sS'wd'
p350
I206
sS'wc'
p351
I41
sS'jy'
p352
I2
sS'wa'
p353
I18839
sS'wo'
p354
I9371
sS'ju'
p355
I2459
sS'wm'
p356
I61
sS'wl'
p357
I538
sS'wk'
p358
I62
sS'wj'
p359
I1
sS'wi'
p360
I15029
sS'wh'
p361
I14864
sS'ww'
p362
I12
sS'wv'
p363
I1
sS'wu'
p364
I88
sS'jo'
p365
I2181
sS'ws'
p366
I1202
sS'jr'
p367
I77
sS'wp'
p368
I63
sS'jd'
p369
I13
sS'je'
p370
I1657
sS'js'
p371
I1
sS'ja'
p372
I968
sS'jb'
p373
I6
sS'jn'
p374
I1
sS'wt'
p375
I220
sS'jh'
p376
I1
sS'wr'
p377
I1276
sS'ck'
p378
I6342
sS'cj'
p379
I1
sS'ci'
p380
I8918
sS'ch'
p381
I21795
sS'co'
p382
I28123
sS'cn'
p383
I49
sS'cm'
p384
I38
sS'cl'
p385
I5605
sS'cc'
p386
I2448
sS'cb'
p387
I28
sS'ca'
p388
I19111
sS'jk'
p389
I1
sS'cg'
p390
I8
sS'cf'
p391
I24
sS'ce'
p392
I22802
sS'cd'
p393
I45
sS'cz'
p394
I18
sS'cy'
p395
I1186
sS'cs'
p396
I759
sS'cr'
p397
I5365
sS'cq'
p398
I145
sS'cp'
p399
I19
sS'cw'
p400
I4
sS'cv'
p401
I1
sS'cu'
p402
I4721
sS'ct'
p403
I14272
sS'pr'
p404
I15468
sS'ps'
p405
I2048
sS'pp'
p406
I5226
sS'pq'
p407
I4
sS'pv'
p408
I1
sS'pw'
p409
I46
sS'pt'
p410
I3101
sS'pu'
p411
I3702
sS'py'
p412
I348
sS'wz'
p413
I1
sS'pb'
p414
I30
sS'pc'
p415
I11
sS'pa'
p416
I11374
sS'pf'
p417
I63
sS'wy'
p418
I119
sS'pd'
p419
I14
sS'pe'
p420
I17371
sS'pj'
p421
I6
sS'pk'
p422
I33
sS'ph'
p423
I3071
sS'pi'
p424
I5062
sS'pn'
p425
I25
sS'po'
p426
I12344
sS'pl'
p427
I9582
sS'pm'
p428
I689
sS'ik'
p429
I2233
sS'iy'
p430
I11
sS'va'
p431
I4312
sS'vc'
p432
I2
sS'vd'
p433
I6
sS've'
p434
I30745
sS'iq'
p435
I448
sS'vi'
p436
I9019
sS'is'
p437
I41653
sS'ir'
p438
I11929
sS'vl'
p439
I5
sS'vm'
p440
I2
sS'vn'
p441
I2
sS'vo'
p442
I2385
sS'ii'
p443
I75
sS'ih'
p444
I40
sS'vr'
p445
I25
sS'ij'
p446
I43
sS'vt'
p447
I3
sS'vu'
p448
I84
sS'vv'
p449
I2
sS'in'
p450
I89520
sS'ia'
p451
I8715
sS'vy'
p452
I225
sS'vz'
p453
I1
sS'ib'
p454
I3188
sS'ie'
p455
I13323
sS'id'
p456
I12814
sS'ig'
p457
I10106
sS'if'
p458
I7254
sS'jp'
p459
I1
sS'vs'
p460
I70
sS'bd'
p461
I66
sS'be'
p462
I22392
sS'bf'
p463
I7
sS'bg'
p464
I13
sS'ba'
p465
I6336
sS'bb'
p466
I576
sS'bc'
p467
I59
sS'bl'
p468
I8907
sS'bm'
p469
I146
sS'bn'
p470
I17
sS'bo'
p471
I8215
sS'bh'
p472
I13
sS'bi'
p473
I3819
sS'bj'
p474
I628
sS'bk'
p475
I2
sS'bt'
p476
I507
sS'bu'
p477
I8186
sS'bv'
p478
I214
sS'bw'
p479
I15
sS'bp'
p480
I12
sS'br'
p481
I4272
sS'bs'
p482
I1451
sS'by'
p483
I5786
sS'bz'
p484
I1
sS'oo'
p485
I10337
sS'on'
p486
I61725
sS'om'
p487
I20538
sS'ol'
p488
I13365
sS'ok'
p489
I3035
sS'oj'
p490
I228
sS'oi'
p491
I3292
sS'oh'
p492
I935
sS'og'
p493
I3014
sS'of'
p494
I39534
sS'oe'
p495
I1723
sS'od'
p496
I7050
sS'oc'
p497
I5719
sS'ob'
p498
I3610
sS'oa'
p499
I2907
sS'oz'
p500
I191
sS'oy'
p501
I1523
sS'ox'
p502
I512
sS'ow'
p503
I13441
sS'ov'
p504
I7148
sS'ou'
p505
I36515
sS'ot'
p506
I16023
sS'os'
p507
I10817
sS'or'
p508
I46403
sS'oq'
p509
I42
sS'op'
p510
I8165
sS'pg'
p511
I20
sS'hz'
p512
I17
sS'hy'
p513
I1706
sS'hr'
p514
I3362
sS'hs'
p515
I629
sS'hp'
p516
I66
sS'hq'
p517
I20
sS'hv'
p518
I14
sS'hw'
p519
I215
sS'ht'
p520
I5960
sS'hu'
p521
I3055
sS'hj'
p522
I4
sS'hk'
p523
I10
sS'hh'
p524
I58
sS'hi'
p525
I32452
sS'hn'
p526
I1049
sS'ho'
p527
I19723
sS'hl'
p528
I555
sS'hm'
p529
I450
sS'hb'
p530
I223
sS'hc'
p531
I169
sS'ha'
p532
I37621
sS'hf'
p533
I82
sS'hg'
p534
I19
sS'hd'
p535
I70
sS'he'
p536
I123249
sS'ji'
p537
I127
sS'uy'
p538
I222
sS'ux'
p539
I176
sS'uz'
p540
I118
sS'uu'
p541
I38
sS'ut'
p542
I16582
sS'uw'
p543
I2
sS'uv'
p544
I162
sS'uq'
p545
I8
sS'up'
p546
I5437
sS'us'
p547
I17041
sS'ur'
p548
I18868
sS'um'
p549
I4680
sS'ul'
p550
I13118
sS'uo'
p551
I408
sS'un'
p552
I15706
sS'ui'
p553
I3837
sS'uh'
p554
I71
sS'uk'
p555
I88
sS'uj'
p556
I29
sS'ue'
p557
I4925
sS'ud'
p558
I3409
sS'ug'
p559
I5440
sS'uf'
p560
I694
sS'ua'
p561
I4415
sS'uc'
p562
I6243
sS'ub'
p563
I3298
sS'aa'
p564
I80
sS'ac'
p565
I16505
sS'ab'
p566
I8088
sS'ae'
p567
I352
sS'ad'
p568
I16368
sS'ag'
p569
I7639
sS'af'
p570
I3649
sS'ai'
p571
I13271
sS'ah'
p572
I486
sS'ak'
p573
I4328
sS'aj'
p574
I485
sS'am'
p575
I10743
sS'al'
p576
I37414
sS'ao'
p577
I191
sS'an'
p578
I73140
sS'aq'
p579
I64
sS'ap'
p580
I6765
sS'as'
p581
I35265
sS'ar'
p582
I39873
sS'au'
p583
I4235
sS'at'
p584
I53456
sS'aw'
p585
I2562
sS'av'
p586
I7902
sS'ay'
p587
I9770
sS'ax'
p588
I806
sS'az'
p589
I633
sS'nh'
p590
I403
sS'ni'
p591
I12770
sS'nj'
p592
I386
sS'nk'
p593
I2282
sS'nl'
p594
I2751
sS'nm'
p595
I888
sS'nn'
p596
I3569
sS'no'
p597
I17023
sS'na'
p598
I11373
sS'nb'
p599
I214
sS'nc'
p600
I14128
sS'nd'
p601
I49050
sS'ne'
p602
I27702
sS'nf'
p603
I1999
sS'ng'
p604
I38299
sS'nx'
p605
I99
sS'ny'
p606
I4251
sS'nz'
p607
I112
sS'np'
p608
I262
sS'nq'
p609
I189
sS'nr'
p610
I381
sS'ns'
p611
I17957
sS'nt'
p612
I37740
sS'nu'
p613
I2821
sS'nv'
p614
I1633
sS'nw'
p615
I244
sS'vp'
p616
I3
stRp617
(dp618
g7
I3740809
sS'_max_cache'
p619
NsS'_Nr_cache'
p620
NsbsS'_bins'
p621
I605
sb.